; Function Attrs: mustprogress uwtable
define i64 @_ZNK8QuantLib27CPICapFloorTermPriceSurface22cpiOptionDateFromTenorERKNS_6PeriodE(ptr noundef nonnull align 8 dereferenceable(304) %this, ptr nocapture noundef nonnull readonly align 4 dereferenceable(8) %p) unnamed_addr #4 align 2 personality ptr @__gxx_personality_v0 {
entry:
  %ref.tmp = alloca %"class.QuantLib::Calendar", align 8
  %ref.tmp2 = alloca %"class.QuantLib::Date", align 8
  call void @llvm.lifetime.start.p0(i64 16, ptr nonnull %ref.tmp) #19
  %vtable = load ptr, ptr %this, align 8, !tbaa !14
  %vfn = getelementptr inbounds i8, ptr %vtable, i64 48
  %0 = load ptr, ptr %vfn, align 8
  call void %0(ptr dead_on_unwind nonnull writable sret(%"class.QuantLib::Calendar") align 8 %ref.tmp, ptr noundef nonnull align 8 dereferenceable(64) %this)
  call void @llvm.lifetime.start.p0(i64 8, ptr nonnull %ref.tmp2) #19
  %vtable3 = load ptr, ptr %this, align 8, !tbaa !14
  %vfn4 = getelementptr inbounds i8, ptr %vtable3, i64 40
  %1 = load ptr, ptr %vfn4, align 8
  %call = invoke noundef nonnull align 8 dereferenceable(8) ptr %1(ptr noundef nonnull align 8 dereferenceable(64) %this)
          to label %invoke.cont unwind label %lpad

invoke.cont:                                      ; preds = %entry
  %2 = load i32, ptr %p, align 4, !tbaa !81
  %units_.i.i = getelementptr inbounds nuw i8, ptr %p, i64 4
  %3 = load i32, ptr %units_.i.i, align 4, !tbaa !82
  %call3.i1 = invoke i64 @_ZN8QuantLib4Date7advanceERKS0_iNS_8TimeUnitE(ptr noundef nonnull align 8 dereferenceable(8) %call, i32 noundef %2, i32 noundef %3)
          to label %invoke.cont5 unwind label %lpad

invoke.cont5:                                     ; preds = %invoke.cont
  store i64 %call3.i1, ptr %ref.tmp2, align 8
  %vtable7 = load ptr, ptr %this, align 8, !tbaa !14
  %vfn8 = getelementptr inbounds i8, ptr %vtable7, i64 112
  %4 = load ptr, ptr %vfn8, align 8
  %call10 = invoke noundef i32 %4(ptr noundef nonnull align 8 dereferenceable(304) %this)
          to label %invoke.cont9 unwind label %lpad

invoke.cont9:                                     ; preds = %invoke.cont5
  %call12 = invoke i64 @_ZNK8QuantLib8Calendar6adjustERKNS_4DateENS_21BusinessDayConventionE(ptr noundef nonnull align 8 dereferenceable(16) %ref.tmp, ptr noundef nonnull align 8 dereferenceable(8) %ref.tmp2, i32 noundef %call10)
          to label %invoke.cont11 unwind label %lpad

invoke.cont11:                                    ; preds = %invoke.cont9
  call void @llvm.lifetime.end.p0(i64 8, ptr nonnull %ref.tmp2) #19
  %pn.i.i = getelementptr inbounds nuw i8, ptr %ref.tmp, i64 8
  %5 = load ptr, ptr %pn.i.i, align 8, !tbaa !16
  %cmp.not.i.i.i = icmp eq ptr %5, null
  br i1 %cmp.not.i.i.i, label %_ZN8QuantLib8CalendarD2Ev.exit, label %if.then.i.i.i

if.then.i.i.i:                                    ; preds = %invoke.cont11
  %use_count_.i.i.i.i = getelementptr inbounds nuw i8, ptr %5, i64 8
  %6 = atomicrmw sub ptr %use_count_.i.i.i.i, i32 1 acq_rel, align 4
  %cmp.i.i.i.i = icmp eq i32 %6, 1
  br i1 %cmp.i.i.i.i, label %if.then.i.i.i.i, label %_ZN8QuantLib8CalendarD2Ev.exit

if.then.i.i.i.i:                                  ; preds = %if.then.i.i.i
  %vtable.i.i.i.i = load ptr, ptr %5, align 8, !tbaa !14
  %vfn.i.i.i.i = getelementptr inbounds i8, ptr %vtable.i.i.i.i, i64 16
  %7 = load ptr, ptr %vfn.i.i.i.i, align 8
  invoke void %7(ptr noundef nonnull align 8 dereferenceable(16) %5)
          to label %.noexc.i.i.i unwind label %terminate.lpad.i.i.i

.noexc.i.i.i:                                     ; preds = %if.then.i.i.i.i
  %weak_count_.i.i.i.i.i = getelementptr inbounds nuw i8, ptr %5, i64 12
  %8 = atomicrmw sub ptr %weak_count_.i.i.i.i.i, i32 1 acq_rel, align 4
  %cmp.i.i.i.i.i = icmp eq i32 %8, 1
  br i1 %cmp.i.i.i.i.i, label %if.then.i.i.i.i.i, label %_ZN8QuantLib8CalendarD2Ev.exit

if.then.i.i.i.i.i:                                ; preds = %.noexc.i.i.i
  %vtable.i.i.i.i.i = load ptr, ptr %5, align 8, !tbaa !14
  %vfn.i.i.i.i.i = getelementptr inbounds i8, ptr %vtable.i.i.i.i.i, i64 24
  %9 = load ptr, ptr %vfn.i.i.i.i.i, align 8
  invoke void %9(ptr noundef nonnull align 8 dereferenceable(16) %5)
          to label %_ZN8QuantLib8CalendarD2Ev.exit unwind label %terminate.lpad.i.i.i

terminate.lpad.i.i.i:                             ; preds = %if.then.i.i.i.i.i, %if.then.i.i.i.i
  %10 = landingpad { ptr, i32 }
          catch ptr null
  %11 = extractvalue { ptr, i32 } %10, 0
  call void @__clang_call_terminate(ptr %11) #20
  unreachable

_ZN8QuantLib8CalendarD2Ev.exit:                   ; preds = %invoke.cont11, %if.then.i.i.i, %.noexc.i.i.i, %if.then.i.i.i.i.i
  call void @llvm.lifetime.end.p0(i64 16, ptr nonnull %ref.tmp) #19
  ret i64 %call12

lpad:                                             ; preds = %invoke.cont, %invoke.cont9, %invoke.cont5, %entry
  %12 = landingpad { ptr, i32 }
          cleanup
  call void @llvm.lifetime.end.p0(i64 8, ptr nonnull %ref.tmp2) #19
  call void @_ZN8QuantLib8CalendarD2Ev(ptr noundef nonnull align 8 dereferenceable(16) %ref.tmp) #19
  call void @llvm.lifetime.end.p0(i64 16, ptr nonnull %ref.tmp) #19
  resume { ptr, i32 } %12
}